; ModuleID = '60/350.c'
source_filename = "60/350.c"
target datalayout = "e-m:e-p270:32:32-p271:32:32-p272:64:64-i64:64-f80:128-n8:16:32:64-S128"
target triple = "x86_64-pc-linux-gnu"

@.str = private unnamed_addr constant [3 x i8] c"%d\00", align 1
@.str.1 = private unnamed_addr constant [7 x i8] c"%d %d\0A\00", align 1
@.str.2 = private unnamed_addr constant [6 x i8] c"empty\00", align 1

; Function Attrs: noinline nounwind uwtable
define dso_local i32 @f(i32 %0) #0 {
  %2 = alloca i32, align 4
  %3 = alloca i32, align 4
  %4 = alloca i32, align 4
  %5 = alloca i32, align 4
  store i32 %0, i32* %3, align 4
  store i32 0, i32* %5, align 4
  %6 = load i32, i32* %3, align 4
  %7 = icmp eq i32 %6, 1
  br i1 %7, label %8, label %9

8:                                                ; preds = %1
  store i32 1, i32* %2, align 4
  br label %36

9:                                                ; preds = %1
  %10 = load i32, i32* %3, align 4
  %11 = icmp eq i32 %10, 2
  br i1 %11, label %12, label %13

12:                                               ; preds = %9
  store i32 0, i32* %2, align 4
  br label %36

13:                                               ; preds = %9
  store i32 2, i32* %4, align 4
  br label %14

14:                                               ; preds = %28, %13
  %15 = load i32, i32* %4, align 4
  %16 = sitofp i32 %15 to double
  %17 = load i32, i32* %3, align 4
  %18 = sitofp i32 %17 to double
  %19 = call double @sqrt(double %18) #3
  %20 = fcmp ole double %16, %19
  br i1 %20, label %21, label %31

21:                                               ; preds = %14
  %22 = load i32, i32* %3, align 4
  %23 = load i32, i32* %4, align 4
  %24 = srem i32 %22, %23
  %25 = icmp eq i32 %24, 0
  br i1 %25, label %26, label %27

26:                                               ; preds = %21
  store i32 1, i32* %5, align 4
  br label %31

27:                                               ; preds = %21
  br label %28

28:                                               ; preds = %27
  %29 = load i32, i32* %4, align 4
  %30 = add nsw i32 %29, 1
  store i32 %30, i32* %4, align 4
  br label %14

31:                                               ; preds = %26, %14
  %32 = load i32, i32* %5, align 4
  %33 = icmp eq i32 %32, 0
  br i1 %33, label %34, label %35

34:                                               ; preds = %31
  store i32 0, i32* %2, align 4
  br label %36

35:                                               ; preds = %31
  store i32 1, i32* %2, align 4
  br label %36

36:                                               ; preds = %35, %34, %12, %8
  %37 = load i32, i32* %2, align 4
  ret i32 %37
}

; Function Attrs: nounwind
declare dso_local double @sqrt(double) #1

; Function Attrs: noinline nounwind uwtable
define dso_local i32 @main() #0 {
  %1 = alloca i32, align 4
  %2 = alloca i32, align 4
  %3 = alloca i32, align 4
  %4 = alloca i32, align 4
  store i32 0, i32* %1, align 4
  store i32 0, i32* %4, align 4
  %5 = call i32 (i8*, ...) @__isoc99_scanf(i8* getelementptr inbounds ([3 x i8], [3 x i8]* @.str, i64 0, i64 0), i32* %2)
  store i32 5, i32* %3, align 4
  br label %6

6:                                                ; preds = %27, %0
  %7 = load i32, i32* %3, align 4
  %8 = load i32, i32* %2, align 4
  %9 = icmp sle i32 %7, %8
  br i1 %9, label %10, label %30

10:                                               ; preds = %6
  %11 = load i32, i32* %3, align 4
  %12 = call i32 @f(i32 %11)
  %13 = icmp eq i32 %12, 0
  br i1 %13, label %14, label %26

14:                                               ; preds = %10
  %15 = load i32, i32* %3, align 4
  %16 = sub nsw i32 %15, 2
  %17 = call i32 @f(i32 %16)
  %18 = icmp eq i32 %17, 0
  br i1 %18, label %19, label %26

19:                                               ; preds = %14
  %20 = load i32, i32* %3, align 4
  %21 = sub nsw i32 %20, 2
  %22 = load i32, i32* %3, align 4
  %23 = call i32 (i8*, ...) @printf(i8* getelementptr inbounds ([7 x i8], [7 x i8]* @.str.1, i64 0, i64 0), i32 %21, i32 %22)
  %24 = load i32, i32* %4, align 4
  %25 = add nsw i32 %24, 1
  store i32 %25, i32* %4, align 4
  br label %26

26:                                               ; preds = %19, %14, %10
  br label %27

27:                                               ; preds = %26
  %28 = load i32, i32* %3, align 4
  %29 = add nsw i32 %28, 2
  store i32 %29, i32* %3, align 4
  br label %6

30:                                               ; preds = %6
  %31 = load i32, i32* %4, align 4
  %32 = icmp eq i32 %31, 0
  br i1 %32, label %33, label %35

33:                                               ; preds = %30
  %34 = call i32 (i8*, ...) @printf(i8* getelementptr inbounds ([6 x i8], [6 x i8]* @.str.2, i64 0, i64 0))
  br label %35

35:                                               ; preds = %33, %30
  %36 = call i32 @getchar()
  %37 = call i32 @getchar()
  ret i32 0
}

declare dso_local i32 @__isoc99_scanf(i8*, ...) #2

declare dso_local i32 @printf(i8*, ...) #2

declare dso_local i32 @getchar() #2


!llvm.module.flags = !{!0}
!llvm.ident = !{!1}

!0 = !{i32 1, !"wchar_size", i32 4}
!1 = !{!"clang version 10.0.0-4ubuntu1 "}
