; ModuleID = 'source-C-CXX/59/350.c'
source_filename = "source-C-CXX/59/350.c"
target datalayout = "e-m:e-p270:32:32-p271:32:32-p272:64:64-i64:64-f80:128-n8:16:32:64-S128"
target triple = "x86_64-pc-linux-gnu"

%struct._IO_FILE = type { i32, i8*, i8*, i8*, i8*, i8*, i8*, i8*, i8*, i8*, i8*, i8*, %struct._IO_marker*, %struct._IO_FILE*, i32, i32, i64, i16, i8, [1 x i8], i8*, i64, %struct._IO_codecvt*, %struct._IO_wide_data*, %struct._IO_FILE*, i8*, i64, i32, [20 x i8] }
%struct._IO_marker = type opaque
%struct._IO_codecvt = type opaque
%struct._IO_wide_data = type opaque

@.str = private unnamed_addr constant [3 x i8] c"%d\00", align 1
@.str.1 = private unnamed_addr constant [7 x i8] c"%d %d\0A\00", align 1
@.str.2 = private unnamed_addr constant [6 x i8] c"empty\00", align 1
@stdin = external local_unnamed_addr global %struct._IO_FILE*, align 8

; Function Attrs: nofree nounwind sspstrong uwtable
define dso_local i32 @f(i32 %0) local_unnamed_addr #0 {
  switch i32 %0, label %2 [
    i32 1, label %18
    i32 2, label %6
  ]

2:                                                ; preds = %1
  %3 = sitofp i32 %0 to double
  %4 = tail call double @sqrt(double %3) #4
  %5 = fcmp ult double %4, 2.000000e+00
  br i1 %5, label %18, label %11

6:                                                ; preds = %1
  br label %18

7:                                                ; preds = %11
  %8 = sitofp i32 %15 to double
  %9 = tail call double @sqrt(double %3) #4
  %10 = fcmp ult double %9, %8
  br i1 %10, label %16, label %11, !llvm.loop !5

11:                                               ; preds = %2, %7
  %12 = phi i32 [ %15, %7 ], [ 2, %2 ]
  %13 = srem i32 %0, %12
  %14 = icmp eq i32 %13, 0
  %15 = add nuw nsw i32 %12, 1
  br i1 %14, label %16, label %7

16:                                               ; preds = %11, %7
  %17 = zext i1 %14 to i32
  br label %18

18:                                               ; preds = %2, %16, %1, %6
  %19 = phi i32 [ 0, %6 ], [ %0, %1 ], [ 0, %2 ], [ %17, %16 ]
  ret i32 %19
}

; Function Attrs: argmemonly mustprogress nofree nosync nounwind willreturn
declare void @llvm.lifetime.start.p0i8(i64 immarg, i8* nocapture) #1

; Function Attrs: mustprogress nofree nounwind willreturn
declare double @sqrt(double) local_unnamed_addr #2

; Function Attrs: argmemonly mustprogress nofree nosync nounwind willreturn
declare void @llvm.lifetime.end.p0i8(i64 immarg, i8* nocapture) #1

; Function Attrs: nofree nounwind sspstrong uwtable
define dso_local i32 @main() local_unnamed_addr #0 {
  %1 = alloca i32, align 4
  %2 = bitcast i32* %1 to i8*
  call void @llvm.lifetime.start.p0i8(i64 4, i8* nonnull %2) #4
  %3 = call i32 (i8*, ...) @__isoc99_scanf(i8* getelementptr inbounds ([3 x i8], [3 x i8]* @.str, i64 0, i64 0), i32* nonnull %1)
  %4 = load i32, i32* %1, align 4, !tbaa !7
  %5 = icmp slt i32 %4, 5
  br i1 %5, label %47, label %6

6:                                                ; preds = %0, %40
  %7 = phi i32 [ %41, %40 ], [ 0, %0 ]
  %8 = phi i32 [ %42, %40 ], [ 5, %0 ]
  %9 = sitofp i32 %8 to double
  %10 = call double @sqrt(double %9) #4
  %11 = fcmp ult double %10, 2.000000e+00
  br i1 %11, label %21, label %16

12:                                               ; preds = %16
  %13 = sitofp i32 %20 to double
  %14 = call double @sqrt(double %9) #4
  %15 = fcmp ult double %14, %13
  br i1 %15, label %21, label %16, !llvm.loop !5

16:                                               ; preds = %6, %12
  %17 = phi i32 [ %20, %12 ], [ 2, %6 ]
  %18 = urem i32 %8, %17
  %19 = icmp eq i32 %18, 0
  %20 = add nuw nsw i32 %17, 1
  br i1 %19, label %40, label %12

21:                                               ; preds = %12, %6
  %22 = add nsw i32 %8, -2
  switch i32 %8, label %23 [
    i32 3, label %40
    i32 4, label %36
  ]

23:                                               ; preds = %21
  %24 = sitofp i32 %22 to double
  %25 = call double @sqrt(double %24) #4
  %26 = fcmp ult double %25, 2.000000e+00
  br i1 %26, label %36, label %31

27:                                               ; preds = %31
  %28 = sitofp i32 %35 to double
  %29 = call double @sqrt(double %24) #4
  %30 = fcmp ult double %29, %28
  br i1 %30, label %36, label %31, !llvm.loop !5

31:                                               ; preds = %23, %27
  %32 = phi i32 [ %35, %27 ], [ 2, %23 ]
  %33 = urem i32 %22, %32
  %34 = icmp eq i32 %33, 0
  %35 = add nuw nsw i32 %32, 1
  br i1 %34, label %40, label %27

36:                                               ; preds = %27, %21, %23
  %37 = phi i32 [ %22, %23 ], [ 2, %21 ], [ %22, %27 ]
  %38 = call i32 (i8*, ...) @printf(i8* nonnull dereferenceable(1) getelementptr inbounds ([7 x i8], [7 x i8]* @.str.1, i64 0, i64 0), i32 %37, i32 %8)
  %39 = add nsw i32 %7, 1
  br label %40

40:                                               ; preds = %16, %31, %21, %36
  %41 = phi i32 [ %39, %36 ], [ %7, %21 ], [ %7, %31 ], [ %7, %16 ]
  %42 = add nuw nsw i32 %8, 2
  %43 = load i32, i32* %1, align 4, !tbaa !7
  %44 = icmp sgt i32 %42, %43
  br i1 %44, label %45, label %6, !llvm.loop !11

45:                                               ; preds = %40
  %46 = icmp eq i32 %41, 0
  br i1 %46, label %47, label %49

47:                                               ; preds = %0, %45
  %48 = call i32 (i8*, ...) @printf(i8* nonnull dereferenceable(1) getelementptr inbounds ([6 x i8], [6 x i8]* @.str.2, i64 0, i64 0))
  br label %49

49:                                               ; preds = %47, %45
  %50 = load %struct._IO_FILE*, %struct._IO_FILE** @stdin, align 8, !tbaa !12
  %51 = call i32 @getc(%struct._IO_FILE* %50) #4
  %52 = load %struct._IO_FILE*, %struct._IO_FILE** @stdin, align 8, !tbaa !12
  %53 = call i32 @getc(%struct._IO_FILE* %52) #4
  call void @llvm.lifetime.end.p0i8(i64 4, i8* nonnull %2) #4
  ret i32 0
}

; Function Attrs: nofree nounwind
declare noundef i32 @__isoc99_scanf(i8* nocapture noundef readonly, ...) local_unnamed_addr #3

; Function Attrs: nofree nounwind
declare noundef i32 @printf(i8* nocapture noundef readonly, ...) local_unnamed_addr #3

; Function Attrs: nofree nounwind
declare noundef i32 @getc(%struct._IO_FILE* nocapture noundef) local_unnamed_addr #3


!llvm.module.flags = !{!0, !1, !2, !3}
!llvm.ident = !{!4}

!0 = !{i32 1, !"wchar_size", i32 4}
!1 = !{i32 7, !"PIC Level", i32 2}
!2 = !{i32 7, !"PIE Level", i32 2}
!3 = !{i32 7, !"uwtable", i32 1}
!4 = !{!"clang version 13.0.0"}
!5 = distinct !{!5, !6}
!6 = !{!"llvm.loop.mustprogress"}
!7 = !{!8, !8, i64 0}
!8 = !{!"int", !9, i64 0}
!9 = !{!"omnipotent char", !10, i64 0}
!10 = !{!"Simple C/C++ TBAA"}
!11 = distinct !{!11, !6}
!12 = !{!13, !13, i64 0}
!13 = !{!"any pointer", !9, i64 0}
